target datalayout = "e-m:e-p270:32:32-p271:32:32-p272:64:64-i64:64-i128:128-f80:128-n8:16:32:64-S128"
target triple = "x86_64-pc-linux-gnu"

%"class.i18n::phonenumbers::StringPiece" = type { ptr, i64 }

; Function Attrs: mustprogress nounwind uwtable
define linkonce_odr dso_local noundef ptr @_ZNK4i18n12phonenumbers11StringPiece4dataEv(ptr noundef nonnull align 8 dereferenceable(16) %0) #2 comdat align 2 {
  %2 = alloca ptr, align 8
  store ptr %0, ptr %2, align 8, !tbaa !9
  %3 = load ptr, ptr %2, align 8
  %4 = getelementptr inbounds nuw %"class.i18n::phonenumbers::StringPiece", ptr %3, i32 0, i32 0
  %5 = load ptr, ptr %4, align 8, !tbaa !11
  ret ptr %5
}

; Function Attrs: mustprogress nounwind uwtable
define linkonce_odr dso_local noundef i64 @_ZNK4i18n12phonenumbers11StringPiece6lengthEv(ptr noundef nonnull align 8 dereferenceable(16) %0) #2 comdat align 2 {
  %2 = alloca ptr, align 8
  store ptr %0, ptr %2, align 8, !tbaa !9
  %3 = load ptr, ptr %2, align 8
  %4 = getelementptr inbounds nuw %"class.i18n::phonenumbers::StringPiece", ptr %3, i32 0, i32 1
  %5 = load i64, ptr %4, align 8, !tbaa !15
  ret i64 %5
}

; Function Attrs: inlinehint mustprogress uwtable
define internal void @_ZN4i18n12phonenumbersL16BuildLookupTableERKNS0_11StringPieceEPb(ptr noundef nonnull align 8 dereferenceable(16) %0, ptr noundef %1) #6 {
  %3 = alloca ptr, align 8
  %4 = alloca ptr, align 8
  %5 = alloca i64, align 8
  %6 = alloca ptr, align 8
  %7 = alloca i64, align 8
  store ptr %0, ptr %3, align 8, !tbaa !9
  store ptr %1, ptr %4, align 8, !tbaa !30
  call void @llvm.lifetime.start.p0(i64 8, ptr %5) #13
  %8 = load ptr, ptr %3, align 8, !tbaa !9
  %9 = call noundef i64 @_ZNK4i18n12phonenumbers11StringPiece6lengthEv(ptr noundef nonnull align 8 dereferenceable(16) %8)
  store i64 %9, ptr %5, align 8, !tbaa !17
  call void @llvm.lifetime.start.p0(i64 8, ptr %6) #13
  %10 = load ptr, ptr %3, align 8, !tbaa !9
  %11 = call noundef ptr @_ZNK4i18n12phonenumbers11StringPiece4dataEv(ptr noundef nonnull align 8 dereferenceable(16) %10)
  store ptr %11, ptr %6, align 8, !tbaa !16
  call void @llvm.lifetime.start.p0(i64 8, ptr %7) #13
  store i64 0, ptr %7, align 8, !tbaa !17
  br label %12

12:                                               ; preds = %25, %2
  %13 = load i64, ptr %7, align 8, !tbaa !17
  %14 = load i64, ptr %5, align 8, !tbaa !17
  %15 = icmp ult i64 %13, %14
  br i1 %15, label %17, label %16

16:                                               ; preds = %12
  call void @llvm.lifetime.end.p0(i64 8, ptr %7) #13
  br label %28

17:                                               ; preds = %12
  %18 = load ptr, ptr %4, align 8, !tbaa !30
  %19 = load ptr, ptr %6, align 8, !tbaa !16
  %20 = load i64, ptr %7, align 8, !tbaa !17
  %21 = getelementptr inbounds nuw i8, ptr %19, i64 %20
  %22 = load i8, ptr %21, align 1, !tbaa !22
  %23 = zext i8 %22 to i64
  %24 = getelementptr inbounds nuw i8, ptr %18, i64 %23
  store i8 1, ptr %24, align 1, !tbaa !25
  br label %25

25:                                               ; preds = %17
  %26 = load i64, ptr %7, align 8, !tbaa !17
  %27 = add i64 %26, 1
  store i64 %27, ptr %7, align 8, !tbaa !17
  br label %12, !llvm.loop !32

28:                                               ; preds = %16
  call void @llvm.lifetime.end.p0(i64 8, ptr %6) #13
  call void @llvm.lifetime.end.p0(i64 8, ptr %5) #13
  ret void
}

; Function Attrs: mustprogress nounwind uwtable
define dso_local noundef i64 @_ZNK4i18n12phonenumbers11StringPiece17find_first_not_ofEcm(ptr noundef nonnull align 8 dereferenceable(16) %0, i8 noundef signext %1, i64 noundef %2) #2 align 2 {
  %4 = alloca i64, align 8
  %5 = alloca ptr, align 8
  %6 = alloca i8, align 1
  %7 = alloca i64, align 8
  store ptr %0, ptr %5, align 8, !tbaa !9
  store i8 %1, ptr %6, align 1, !tbaa !22
  store i64 %2, ptr %7, align 8, !tbaa !17
  %8 = load ptr, ptr %5, align 8
  %9 = getelementptr inbounds nuw %"class.i18n::phonenumbers::StringPiece", ptr %8, i32 0, i32 1
  %10 = load i64, ptr %9, align 8, !tbaa !15
  %11 = icmp eq i64 %10, 0
  br i1 %11, label %12, label %13

12:                                               ; preds = %3
  store i64 -1, ptr %4, align 8
  br label %36

13:                                               ; preds = %3
  br label %14

14:                                               ; preds = %32, %13
  %15 = load i64, ptr %7, align 8, !tbaa !17
  %16 = getelementptr inbounds nuw %"class.i18n::phonenumbers::StringPiece", ptr %8, i32 0, i32 1
  %17 = load i64, ptr %16, align 8, !tbaa !15
  %18 = icmp ult i64 %15, %17
  br i1 %18, label %19, label %35

19:                                               ; preds = %14
  %20 = getelementptr inbounds nuw %"class.i18n::phonenumbers::StringPiece", ptr %8, i32 0, i32 0
  %21 = load ptr, ptr %20, align 8, !tbaa !11
  %22 = load i64, ptr %7, align 8, !tbaa !17
  %23 = getelementptr inbounds nuw i8, ptr %21, i64 %22
  %24 = load i8, ptr %23, align 1, !tbaa !22
  %25 = sext i8 %24 to i32
  %26 = load i8, ptr %6, align 1, !tbaa !22
  %27 = sext i8 %26 to i32
  %28 = icmp ne i32 %25, %27
  br i1 %28, label %29, label %31

29:                                               ; preds = %19
  %30 = load i64, ptr %7, align 8, !tbaa !17
  store i64 %30, ptr %4, align 8
  br label %36

31:                                               ; preds = %19
  br label %32

32:                                               ; preds = %31
  %33 = load i64, ptr %7, align 8, !tbaa !17
  %34 = add i64 %33, 1
  store i64 %34, ptr %7, align 8, !tbaa !17
  br label %14, !llvm.loop !34

35:                                               ; preds = %14
  store i64 -1, ptr %4, align 8
  br label %36

36:                                               ; preds = %35, %29, %12
  %37 = load i64, ptr %4, align 8
  ret i64 %37
}

; Function Attrs: mustprogress uwtable
define dso_local noundef i64 @_ZNK4i18n12phonenumbers11StringPiece17find_first_not_ofERKS1_m(ptr noundef nonnull align 8 dereferenceable(16) %0, ptr noundef nonnull align 8 dereferenceable(16) %1, i64 noundef %2) #0 align 2 {
  %4 = alloca i64, align 8
  %5 = alloca ptr, align 8
  %6 = alloca ptr, align 8
  %7 = alloca i64, align 8
  %8 = alloca [256 x i8], align 16
  %9 = alloca i64, align 8
  %10 = alloca i32, align 4
  store ptr %0, ptr %5, align 8, !tbaa !9
  store ptr %1, ptr %6, align 8, !tbaa !9
  store i64 %2, ptr %7, align 8, !tbaa !17
  %11 = load ptr, ptr %5, align 8
  %12 = getelementptr inbounds nuw %"class.i18n::phonenumbers::StringPiece", ptr %11, i32 0, i32 1
  %13 = load i64, ptr %12, align 8, !tbaa !15
  %14 = icmp eq i64 %13, 0
  br i1 %14, label %15, label %16

15:                                               ; preds = %3
  store i64 -1, ptr %4, align 8
  br label %65

16:                                               ; preds = %3
  %17 = load ptr, ptr %6, align 8, !tbaa !9
  %18 = getelementptr inbounds nuw %"class.i18n::phonenumbers::StringPiece", ptr %17, i32 0, i32 1
  %19 = load i64, ptr %18, align 8, !tbaa !15
  %20 = icmp eq i64 %19, 0
  br i1 %20, label %21, label %22

21:                                               ; preds = %16
  store i64 0, ptr %4, align 8
  br label %65

22:                                               ; preds = %16
  %23 = load ptr, ptr %6, align 8, !tbaa !9
  %24 = getelementptr inbounds nuw %"class.i18n::phonenumbers::StringPiece", ptr %23, i32 0, i32 1
  %25 = load i64, ptr %24, align 8, !tbaa !15
  %26 = icmp eq i64 %25, 1
  br i1 %26, label %27, label %35

27:                                               ; preds = %22
  %28 = load ptr, ptr %6, align 8, !tbaa !9
  %29 = getelementptr inbounds nuw %"class.i18n::phonenumbers::StringPiece", ptr %28, i32 0, i32 0
  %30 = load ptr, ptr %29, align 8, !tbaa !11
  %31 = getelementptr inbounds i8, ptr %30, i64 0
  %32 = load i8, ptr %31, align 1, !tbaa !22
  %33 = load i64, ptr %7, align 8, !tbaa !17
  %34 = call noundef i64 @_ZNK4i18n12phonenumbers11StringPiece17find_first_not_ofEcm(ptr noundef nonnull align 8 dereferenceable(16) %11, i8 noundef signext %32, i64 noundef %33)
  store i64 %34, ptr %4, align 8
  br label %65

35:                                               ; preds = %22
  call void @llvm.lifetime.start.p0(i64 256, ptr %8) #13
  call void @llvm.memset.p0.i64(ptr align 16 %8, i8 0, i64 256, i1 false)
  %36 = load ptr, ptr %6, align 8, !tbaa !9
  %37 = getelementptr inbounds [256 x i8], ptr %8, i64 0, i64 0
  call void @_ZN4i18n12phonenumbersL16BuildLookupTableERKNS0_11StringPieceEPb(ptr noundef nonnull align 8 dereferenceable(16) %36, ptr noundef %37)
  call void @llvm.lifetime.start.p0(i64 8, ptr %9) #13
  %38 = load i64, ptr %7, align 8, !tbaa !17
  store i64 %38, ptr %9, align 8, !tbaa !17
  br label %39

39:                                               ; preds = %58, %35
  %40 = load i64, ptr %9, align 8, !tbaa !17
  %41 = getelementptr inbounds nuw %"class.i18n::phonenumbers::StringPiece", ptr %11, i32 0, i32 1
  %42 = load i64, ptr %41, align 8, !tbaa !15
  %43 = icmp ult i64 %40, %42
  br i1 %43, label %45, label %44

44:                                               ; preds = %39
  store i32 2, ptr %10, align 4
  br label %61

45:                                               ; preds = %39
  %46 = getelementptr inbounds nuw %"class.i18n::phonenumbers::StringPiece", ptr %11, i32 0, i32 0
  %47 = load ptr, ptr %46, align 8, !tbaa !11
  %48 = load i64, ptr %9, align 8, !tbaa !17
  %49 = getelementptr inbounds nuw i8, ptr %47, i64 %48
  %50 = load i8, ptr %49, align 1, !tbaa !22
  %51 = zext i8 %50 to i64
  %52 = getelementptr inbounds nuw [256 x i8], ptr %8, i64 0, i64 %51
  %53 = load i8, ptr %52, align 1, !tbaa !25, !range !27, !noundef !28
  %54 = trunc i8 %53 to i1
  br i1 %54, label %57, label %55

55:                                               ; preds = %45
  %56 = load i64, ptr %9, align 8, !tbaa !17
  store i64 %56, ptr %4, align 8
  store i32 1, ptr %10, align 4
  br label %61

57:                                               ; preds = %45
  br label %58

58:                                               ; preds = %57
  %59 = load i64, ptr %9, align 8, !tbaa !17
  %60 = add i64 %59, 1
  store i64 %60, ptr %9, align 8, !tbaa !17
  br label %39, !llvm.loop !33

61:                                               ; preds = %55, %44
  call void @llvm.lifetime.end.p0(i64 8, ptr %9) #13
  %62 = load i32, ptr %10, align 4
  switch i32 %62, label %64 [
    i32 2, label %63
  ]

63:                                               ; preds = %61
  store i64 -1, ptr %4, align 8
  store i32 1, ptr %10, align 4
  br label %64

64:                                               ; preds = %63, %61
  call void @llvm.lifetime.end.p0(i64 256, ptr %8) #13
  br label %65

65:                                               ; preds = %64, %27, %21, %15
  %66 = load i64, ptr %4, align 8
  ret i64 %66
}