; Function Attrs: mustprogress nofree norecurse nosync nounwind willreturn memory(read, inaccessiblemem: none) uwtable
define dso_local noundef i64 @_ZNK4i18n12phonenumbers11StringPiece17find_first_not_ofERKS1_m(ptr noundef nonnull readonly align 8 captures(none) dereferenceable(16) %0, ptr noundef nonnull readonly align 8 captures(none) dereferenceable(16) %1, i64 noundef %2) local_unnamed_addr #6 align 2 {
  %4 = alloca [256 x i8], align 16
  %5 = getelementptr inbounds nuw i8, ptr %0, i64 8
  %6 = load i64, ptr %5, align 8, !tbaa !11
  %7 = icmp eq i64 %6, 0
  br i1 %7, label %_ZNK4i18n12phonenumbers11StringPiece17find_first_not_ofEcm.exit, label %8

8:                                                ; preds = %3
  %9 = getelementptr inbounds nuw i8, ptr %1, i64 8
  %10 = load i64, ptr %9, align 8, !tbaa !11
  switch i64 %10, label %21 [
    i64 0, label %_ZNK4i18n12phonenumbers11StringPiece17find_first_not_ofEcm.exit
    i64 1, label %11
  ]

11:                                               ; preds = %8
  %12 = load ptr, ptr %1, align 8, !tbaa !4
  %13 = load i8, ptr %12, align 1, !tbaa !15
  %14 = icmp ult i64 %2, %6
  br i1 %14, label %.lr.ph.i, label %_ZNK4i18n12phonenumbers11StringPiece17find_first_not_ofEcm.exit

.lr.ph.i:                                         ; preds = %11
  %15 = load ptr, ptr %0, align 8, !tbaa !4
  br label %16

16:                                               ; preds = %19, %.lr.ph.i
  %.07.i = phi i64 [ %2, %.lr.ph.i ], [ %20, %19 ]
  %17 = getelementptr inbounds nuw i8, ptr %15, i64 %.07.i
  %18 = load i8, ptr %17, align 1, !tbaa !15
  %.not.i = icmp eq i8 %18, %13
  br i1 %.not.i, label %19, label %_ZNK4i18n12phonenumbers11StringPiece17find_first_not_ofEcm.exit

19:                                               ; preds = %16
  %20 = add i64 %.07.i, 1
  %exitcond.not.i = icmp eq i64 %20, %6
  br i1 %exitcond.not.i, label %_ZNK4i18n12phonenumbers11StringPiece17find_first_not_ofEcm.exit, label %16, !llvm.loop !27

21:                                               ; preds = %8
  call void @llvm.lifetime.start.p0(i64 256, ptr nonnull %4) #13
  call void @llvm.memset.p0.i64(ptr noundef nonnull align 16 dereferenceable(256) %4, i8 0, i64 256, i1 false)
  %.val = load ptr, ptr %1, align 8, !tbaa !4
  br label %.lr.ph.i17

.lr.ph.i17:                                       ; preds = %21, %.lr.ph.i17
  %.01.i = phi i64 [ %26, %.lr.ph.i17 ], [ 0, %21 ]
  %22 = getelementptr inbounds nuw i8, ptr %.val, i64 %.01.i
  %23 = load i8, ptr %22, align 1, !tbaa !15
  %24 = zext i8 %23 to i64
  %25 = getelementptr inbounds nuw i8, ptr %4, i64 %24
  store i8 1, ptr %25, align 1, !tbaa !21
  %26 = add nuw i64 %.01.i, 1
  %exitcond.not.i18 = icmp eq i64 %26, %10
  br i1 %exitcond.not.i18, label %_ZN4i18n12phonenumbersL16BuildLookupTableERKNS0_11StringPieceEPb.exit.preheader, label %.lr.ph.i17, !llvm.loop !23

_ZN4i18n12phonenumbersL16BuildLookupTableERKNS0_11StringPieceEPb.exit.preheader: ; preds = %.lr.ph.i17
  %.not19 = icmp ult i64 %2, %6
  br i1 %.not19, label %.lr.ph, label %._crit_edge

.lr.ph:                                           ; preds = %_ZN4i18n12phonenumbersL16BuildLookupTableERKNS0_11StringPieceEPb.exit.preheader
  %27 = load ptr, ptr %0, align 8, !tbaa !4
  br label %28

28:                                               ; preds = %.lr.ph, %_ZN4i18n12phonenumbersL16BuildLookupTableERKNS0_11StringPieceEPb.exit
  %.01220 = phi i64 [ %2, %.lr.ph ], [ %35, %_ZN4i18n12phonenumbersL16BuildLookupTableERKNS0_11StringPieceEPb.exit ]
  %29 = getelementptr inbounds nuw i8, ptr %27, i64 %.01220
  %30 = load i8, ptr %29, align 1, !tbaa !15
  %31 = zext i8 %30 to i64
  %32 = getelementptr inbounds nuw [256 x i8], ptr %4, i64 0, i64 %31
  %33 = load i8, ptr %32, align 1, !tbaa !21, !range !24, !noundef !25
  %34 = trunc nuw i8 %33 to i1
  br i1 %34, label %_ZN4i18n12phonenumbersL16BuildLookupTableERKNS0_11StringPieceEPb.exit, label %._crit_edge

_ZN4i18n12phonenumbersL16BuildLookupTableERKNS0_11StringPieceEPb.exit: ; preds = %28
  %35 = add i64 %.01220, 1
  %exitcond.not = icmp eq i64 %35, %6
  br i1 %exitcond.not, label %._crit_edge, label %28, !llvm.loop !28

._crit_edge:                                      ; preds = %_ZN4i18n12phonenumbersL16BuildLookupTableERKNS0_11StringPieceEPb.exit, %28, %_ZN4i18n12phonenumbersL16BuildLookupTableERKNS0_11StringPieceEPb.exit.preheader
  %spec.select = phi i64 [ -1, %_ZN4i18n12phonenumbersL16BuildLookupTableERKNS0_11StringPieceEPb.exit.preheader ], [ %.01220, %28 ], [ -1, %_ZN4i18n12phonenumbersL16BuildLookupTableERKNS0_11StringPieceEPb.exit ]
  call void @llvm.lifetime.end.p0(i64 256, ptr nonnull %4) #13
  br label %_ZNK4i18n12phonenumbers11StringPiece17find_first_not_ofEcm.exit

_ZNK4i18n12phonenumbers11StringPiece17find_first_not_ofEcm.exit: ; preds = %19, %16, %11, %8, %3, %._crit_edge
  %.013 = phi i64 [ %spec.select, %._crit_edge ], [ -1, %3 ], [ %10, %8 ], [ -1, %11 ], [ -1, %19 ], [ %.07.i, %16 ]
  ret i64 %.013
}